---
triple:          'arm64-apple-darwin'
binary-path:     a.out
relocations:
  - { offsetInCU: 0x5C, offset: 0x5C, size: 0x8, addend: 0x0, symName: __ZNSt3__1L19piecewise_constructE, symObjAddr: 0x330D, symBinAddr: 0x100007CAE, symSize: 0x0 }
  - { offsetInCU: 0x59D6, offset: 0x59D6, size: 0x8, addend: 0x0, symName: __ZNSt3__124__put_character_sequenceB8ue170006IcNS_11char_traitsIcEEEERNS_13basic_ostreamIT_T0_EES7_PKS4_m, symObjAddr: 0x279C, symBinAddr: 0x100005DFC, symSize: 0x1EC }
  - { offsetInCU: 0x732A, offset: 0x732A, size: 0x8, addend: 0x0, symName: __ZNSt3__14endlB8ue170006IcNS_11char_traitsIcEEEERNS_13basic_ostreamIT_T0_EES7_, symObjAddr: 0x354, symBinAddr: 0x1000039B4, symSize: 0x58 }
  - { offsetInCU: 0x7C48, offset: 0x7C48, size: 0x8, addend: 0x0, symName: __ZNSt3__1lsB8ue170006INS_11char_traitsIcEEEERNS_13basic_ostreamIcT_EES6_PKc, symObjAddr: 0x42C, symBinAddr: 0x100003A8C, symSize: 0x48 }
  - { offsetInCU: 0x8A80, offset: 0x8A80, size: 0x8, addend: 0x0, symName: __ZNSt3__119__libcpp_deallocateB8ue170006EPvmm, symObjAddr: 0x7FC, symBinAddr: 0x100003E5C, symSize: 0x30 }
  - { offsetInCU: 0x8AC8, offset: 0x8AC8, size: 0x8, addend: 0x0, symName: __ZNSt3__127__do_deallocate_handle_sizeB8ue170006IJEEEvPvmDpT_, symObjAddr: 0x82C, symBinAddr: 0x100003E8C, symSize: 0x28 }
  - { offsetInCU: 0x8B06, offset: 0x8B06, size: 0x8, addend: 0x0, symName: __ZNSt3__124__libcpp_operator_deleteB8ue170006IJPvEEEvDpT_, symObjAddr: 0x854, symBinAddr: 0x100003EB4, symSize: 0x24 }
  - { offsetInCU: 0x8B3B, offset: 0x8B3B, size: 0x8, addend: 0x0, symName: __ZNSt3__19use_facetB8ue170006INS_5ctypeIcEEEERKT_RKNS_6localeE, symObjAddr: 0xBA4, symBinAddr: 0x100004204, symSize: 0x2C }
  - { offsetInCU: 0x903F, offset: 0x903F, size: 0x8, addend: 0x0, symName: __ZNSt3__116forward_as_tupleB8ue170006IJRKyEEENS_5tupleIJDpOT_EEES6_, symObjAddr: 0x10F0, symBinAddr: 0x100004750, symSize: 0x2C }
  - { offsetInCU: 0x9078, offset: 0x9078, size: 0x8, addend: 0x0, symName: __ZNSt3__116forward_as_tupleB8ue170006IJEEENS_5tupleIJDpOT_EEES4_, symObjAddr: 0x111C, symBinAddr: 0x10000477C, symSize: 0x4 }
  - { offsetInCU: 0x909C, offset: 0x909C, size: 0x8, addend: 0x0, symName: __ZNSt3__116__constrain_hashB8ue170006Emm, symObjAddr: 0x11D0, symBinAddr: 0x100004830, symSize: 0x98 }
  - { offsetInCU: 0x90D6, offset: 0x90D6, size: 0x8, addend: 0x0, symName: __ZNSt3__13maxB8ue170006ImEERKT_S3_S3_, symObjAddr: 0x14F0, symBinAddr: 0x100004B50, symSize: 0x2C }
  - { offsetInCU: 0x9119, offset: 0x9119, size: 0x8, addend: 0x0, symName: __ZNSt3__116__is_hash_power2B8ue170006Em, symObjAddr: 0x151C, symBinAddr: 0x100004B7C, symSize: 0x50 }
  - { offsetInCU: 0x9163, offset: 0x9163, size: 0x8, addend: 0x0, symName: __ZNSt3__117__libcpp_allocateB8ue170006Emm, symObjAddr: 0x1A70, symBinAddr: 0x1000050D0, symSize: 0x28 }
  - { offsetInCU: 0x91A0, offset: 0x91A0, size: 0x8, addend: 0x0, symName: __ZNSt3__121__libcpp_operator_newB8ue170006IJmEEEPvDpT_, symObjAddr: 0x1AAC, symBinAddr: 0x10000510C, symSize: 0x24 }
  - { offsetInCU: 0x91E4, offset: 0x91E4, size: 0x8, addend: 0x0, symName: __ZNSt3__13getB8ue170006ILm0EJRKyEEERNS_13tuple_elementIXT_ENS_5tupleIJDpT0_EEEE4typeERS7_, symObjAddr: 0x1D28, symBinAddr: 0x100005388, symSize: 0x24 }
  - { offsetInCU: 0x9227, offset: 0x9227, size: 0x8, addend: 0x0, symName: __ZNSt3__116__next_hash_pow2B8ue170006Em, symObjAddr: 0x222C, symBinAddr: 0x10000588C, symSize: 0x6C }
  - { offsetInCU: 0x926F, offset: 0x926F, size: 0x8, addend: 0x0, symName: __ZNSt3__112__libcpp_clzB8ue170006Em, symObjAddr: 0x23F0, symBinAddr: 0x100005A50, symSize: 0x1C }
  - { offsetInCU: 0x929B, offset: 0x929B, size: 0x8, addend: 0x0, symName: __ZNSt3__13maxB8ue170006ImNS_6__lessIvvEEEERKT_S5_S5_T0_, symObjAddr: 0x240C, symBinAddr: 0x100005A6C, symSize: 0x54 }
  - { offsetInCU: 0x9391, offset: 0x9391, size: 0x8, addend: 0x0, symName: __ZNSt3__116__pad_and_outputB8ue170006IcNS_11char_traitsIcEEEENS_19ostreambuf_iteratorIT_T0_EES6_PKS4_S8_S8_RNS_8ios_baseES4_, symObjAddr: 0x29D8, symBinAddr: 0x100006038, symSize: 0x240 }
  - { offsetInCU: 0x9460, offset: 0x9460, size: 0x8, addend: 0x0, symName: __ZNSt3__112__to_addressB8ue170006IKcEEPT_S3_, symObjAddr: 0x2F40, symBinAddr: 0x1000065A0, symSize: 0x14 }
  - { offsetInCU: 0x94C8, offset: 0x94C8, size: 0x8, addend: 0x0, symName: __ZNSt3__118__constexpr_strlenB8ue170006EPKc, symObjAddr: 0x3170, symBinAddr: 0x1000067D0, symSize: 0x24 }
  - { offsetInCU: 0x9597, offset: 0x9597, size: 0x8, addend: 0x0, symName: __ZSt28__throw_bad_array_new_lengthB8ue170006v, symObjAddr: 0x1A3C, symBinAddr: 0x10000509C, symSize: 0x34 }
  - { offsetInCU: 0xC0D6, offset: 0xC0D6, size: 0x8, addend: 0x0, symName: _main, symObjAddr: 0x0, symBinAddr: 0x100003660, symSize: 0x328 }
  - { offsetInCU: 0xC17E, offset: 0xC17E, size: 0x8, addend: 0x0, symName: __ZNSt3__113basic_ostreamIcNS_11char_traitsIcEEElsB8ue170006EPFRS3_S4_E, symObjAddr: 0x328, symBinAddr: 0x100003988, symSize: 0x2C }
  - { offsetInCU: 0xC239, offset: 0xC239, size: 0x8, addend: 0x0, symName: __ZNSt3__113unordered_mapIyiNS_4hashIyEENS_8equal_toIyEENS_9allocatorINS_4pairIKyiEEEEEixERS7_, symObjAddr: 0x3AC, symBinAddr: 0x100003A0C, symSize: 0x80 }
  - { offsetInCU: 0xC490, offset: 0xC490, size: 0x8, addend: 0x0, symName: __ZN7ZobristD1Ev, symObjAddr: 0x474, symBinAddr: 0x100003AD4, symSize: 0x2C }
  - { offsetInCU: 0xC4BC, offset: 0xC4BC, size: 0x8, addend: 0x0, symName: __ZN7ZobristD2Ev, symObjAddr: 0x4A0, symBinAddr: 0x100003B00, symSize: 0x34 }
  - { offsetInCU: 0xC4E8, offset: 0xC4E8, size: 0x8, addend: 0x0, symName: __ZNSt3__113unordered_mapIyiNS_4hashIyEENS_8equal_toIyEENS_9allocatorINS_4pairIKyiEEEEED1B8ue170006Ev, symObjAddr: 0x4D4, symBinAddr: 0x100003B34, symSize: 0x2C }
  - { offsetInCU: 0xC512, offset: 0xC512, size: 0x8, addend: 0x0, symName: __ZNSt3__113unordered_mapIyiNS_4hashIyEENS_8equal_toIyEENS_9allocatorINS_4pairIKyiEEEEED2B8ue170006Ev, symObjAddr: 0x500, symBinAddr: 0x100003B60, symSize: 0x2C }
  - { offsetInCU: 0xC53C, offset: 0xC53C, size: 0x8, addend: 0x0, symName: __ZNSt3__112__hash_tableINS_17__hash_value_typeIyiEENS_22__unordered_map_hasherIyS2_NS_4hashIyEENS_8equal_toIyEELb1EEENS_21__unordered_map_equalIyS2_S7_S5_Lb1EEENS_9allocatorIS2_EEED1Ev, symObjAddr: 0x52C, symBinAddr: 0x100003B8C, symSize: 0x2C }
  - { offsetInCU: 0xC568, offset: 0xC568, size: 0x8, addend: 0x0, symName: __ZNSt3__112__hash_tableINS_17__hash_value_typeIyiEENS_22__unordered_map_hasherIyS2_NS_4hashIyEENS_8equal_toIyEELb1EEENS_21__unordered_map_equalIyS2_S7_S5_Lb1EEENS_9allocatorIS2_EEED2Ev, symObjAddr: 0x558, symBinAddr: 0x100003BB8, symSize: 0x48 }
  - { offsetInCU: 0xC594, offset: 0xC594, size: 0x8, addend: 0x0, symName: __ZNSt3__112__hash_tableINS_17__hash_value_typeIyiEENS_22__unordered_map_hasherIyS2_NS_4hashIyEENS_8equal_toIyEELb1EEENS_21__unordered_map_equalIyS2_S7_S5_Lb1EEENS_9allocatorIS2_EEE17__deallocate_nodeEPNS_16__hash_node_baseIPNS_11__hash_nodeIS2_PvEEEE, symObjAddr: 0x5A0, symBinAddr: 0x100003C00, symSize: 0xA8 }
  - { offsetInCU: 0xC5FE, offset: 0xC5FE, size: 0x8, addend: 0x0, symName: __ZNSt3__117__compressed_pairINS_16__hash_node_baseIPNS_11__hash_nodeINS_17__hash_value_typeIyiEEPvEEEENS_9allocatorIS6_EEE5firstB8ue170006Ev, symObjAddr: 0x648, symBinAddr: 0x100003CA8, symSize: 0x24 }
  - { offsetInCU: 0xC624, offset: 0xC624, size: 0x8, addend: 0x0, symName: __ZNSt3__110unique_ptrIA_PNS_16__hash_node_baseIPNS_11__hash_nodeINS_17__hash_value_typeIyiEEPvEEEENS_25__bucket_list_deallocatorINS_9allocatorIS9_EEEEED1B8ue170006Ev, symObjAddr: 0x66C, symBinAddr: 0x100003CCC, symSize: 0x2C }
  - { offsetInCU: 0xC64E, offset: 0xC64E, size: 0x8, addend: 0x0, symName: __ZNSt3__112__hash_tableINS_17__hash_value_typeIyiEENS_22__unordered_map_hasherIyS2_NS_4hashIyEENS_8equal_toIyEELb1EEENS_21__unordered_map_equalIyS2_S7_S5_Lb1EEENS_9allocatorIS2_EEE12__node_allocB8ue170006Ev, symObjAddr: 0x698, symBinAddr: 0x100003CF8, symSize: 0x28 }
  - { offsetInCU: 0xC674, offset: 0xC674, size: 0x8, addend: 0x0, symName: __ZNSt3__116__hash_node_baseIPNS_11__hash_nodeINS_17__hash_value_typeIyiEEPvEEE8__upcastB8ue170006Ev, symObjAddr: 0x6C0, symBinAddr: 0x100003D20, symSize: 0x24 }
  - { offsetInCU: 0xC69A, offset: 0xC69A, size: 0x8, addend: 0x0, symName: __ZNSt3__116allocator_traitsINS_9allocatorINS_11__hash_nodeINS_17__hash_value_typeIyiEEPvEEEEE7destroyB8ue170006INS_4pairIKyiEEvvEEvRS7_PT_, symObjAddr: 0x6E4, symBinAddr: 0x100003D44, symSize: 0x14 }
  - { offsetInCU: 0xC6D5, offset: 0xC6D5, size: 0x8, addend: 0x0, symName: __ZNSt3__122__hash_key_value_typesINS_17__hash_value_typeIyiEEE9__get_ptrB8ue170006ERS2_, symObjAddr: 0x6F8, symBinAddr: 0x100003D58, symSize: 0x24 }
  - { offsetInCU: 0xC6F8, offset: 0xC6F8, size: 0x8, addend: 0x0, symName: __ZNSt3__116allocator_traitsINS_9allocatorINS_11__hash_nodeINS_17__hash_value_typeIyiEEPvEEEEE10deallocateB8ue170006ERS7_PS6_m, symObjAddr: 0x728, symBinAddr: 0x100003D88, symSize: 0x34 }
  - { offsetInCU: 0xC73A, offset: 0xC73A, size: 0x8, addend: 0x0, symName: __ZNSt3__117__compressed_pairINS_16__hash_node_baseIPNS_11__hash_nodeINS_17__hash_value_typeIyiEEPvEEEENS_9allocatorIS6_EEE6secondB8ue170006Ev, symObjAddr: 0x75C, symBinAddr: 0x100003DBC, symSize: 0x24 }
  - { offsetInCU: 0xC760, offset: 0xC760, size: 0x8, addend: 0x0, symName: __ZNSt3__122__compressed_pair_elemINS_9allocatorINS_11__hash_nodeINS_17__hash_value_typeIyiEEPvEEEELi1ELb1EE5__getB8ue170006Ev, symObjAddr: 0x780, symBinAddr: 0x100003DE0, symSize: 0x14 }
  - { offsetInCU: 0xC786, offset: 0xC786, size: 0x8, addend: 0x0, symName: __ZNSt3__114pointer_traitsIPNS_16__hash_node_baseIPNS_11__hash_nodeINS_17__hash_value_typeIyiEEPvEEEEE10pointer_toB8ue170006ERS8_, symObjAddr: 0x794, symBinAddr: 0x100003DF4, symSize: 0x14 }
  - { offsetInCU: 0xC7A9, offset: 0xC7A9, size: 0x8, addend: 0x0, symName: __ZNSt3__117__hash_value_typeIyiE11__get_valueB8ue170006Ev, symObjAddr: 0x7A8, symBinAddr: 0x100003E08, symSize: 0x14 }
  - { offsetInCU: 0xC7CF, offset: 0xC7CF, size: 0x8, addend: 0x0, symName: __ZNSt3__19allocatorINS_11__hash_nodeINS_17__hash_value_typeIyiEEPvEEE10deallocateB8ue170006EPS5_m, symObjAddr: 0x7BC, symBinAddr: 0x100003E1C, symSize: 0x40 }
  - { offsetInCU: 0xC811, offset: 0xC811, size: 0x8, addend: 0x0, symName: __ZNSt3__122__compressed_pair_elemINS_16__hash_node_baseIPNS_11__hash_nodeINS_17__hash_value_typeIyiEEPvEEEELi0ELb0EE5__getB8ue170006Ev, symObjAddr: 0x878, symBinAddr: 0x100003ED8, symSize: 0x14 }
  - { offsetInCU: 0xC837, offset: 0xC837, size: 0x8, addend: 0x0, symName: __ZNSt3__110unique_ptrIA_PNS_16__hash_node_baseIPNS_11__hash_nodeINS_17__hash_value_typeIyiEEPvEEEENS_25__bucket_list_deallocatorINS_9allocatorIS9_EEEEED2B8ue170006Ev, symObjAddr: 0x88C, symBinAddr: 0x100003EEC, symSize: 0x30 }
  - { offsetInCU: 0xC861, offset: 0xC861, size: 0x8, addend: 0x0, symName: __ZNSt3__110unique_ptrIA_PNS_16__hash_node_baseIPNS_11__hash_nodeINS_17__hash_value_typeIyiEEPvEEEENS_25__bucket_list_deallocatorINS_9allocatorIS9_EEEEE5resetB8ue170006EDn, symObjAddr: 0x8BC, symBinAddr: 0x100003F1C, symSize: 0x6C }
  - { offsetInCU: 0xC8A2, offset: 0xC8A2, size: 0x8, addend: 0x0, symName: __ZNSt3__117__compressed_pairIPPNS_16__hash_node_baseIPNS_11__hash_nodeINS_17__hash_value_typeIyiEEPvEEEENS_25__bucket_list_deallocatorINS_9allocatorIS9_EEEEE5firstB8ue170006Ev, symObjAddr: 0x928, symBinAddr: 0x100003F88, symSize: 0x24 }
  - { offsetInCU: 0xC8C8, offset: 0xC8C8, size: 0x8, addend: 0x0, symName: __ZNSt3__117__compressed_pairIPPNS_16__hash_node_baseIPNS_11__hash_nodeINS_17__hash_value_typeIyiEEPvEEEENS_25__bucket_list_deallocatorINS_9allocatorIS9_EEEEE6secondB8ue170006Ev, symObjAddr: 0x94C, symBinAddr: 0x100003FAC, symSize: 0x28 }
  - { offsetInCU: 0xC8EE, offset: 0xC8EE, size: 0x8, addend: 0x0, symName: __ZNSt3__125__bucket_list_deallocatorINS_9allocatorIPNS_16__hash_node_baseIPNS_11__hash_nodeINS_17__hash_value_typeIyiEEPvEEEEEEEclB8ue170006EPSA_, symObjAddr: 0x974, symBinAddr: 0x100003FD4, symSize: 0x58 }
  - { offsetInCU: 0xC923, offset: 0xC923, size: 0x8, addend: 0x0, symName: __ZNSt3__122__compressed_pair_elemIPPNS_16__hash_node_baseIPNS_11__hash_nodeINS_17__hash_value_typeIyiEEPvEEEELi0ELb0EE5__getB8ue170006Ev, symObjAddr: 0x9CC, symBinAddr: 0x10000402C, symSize: 0x14 }
  - { offsetInCU: 0xC949, offset: 0xC949, size: 0x8, addend: 0x0, symName: __ZNSt3__122__compressed_pair_elemINS_25__bucket_list_deallocatorINS_9allocatorIPNS_16__hash_node_baseIPNS_11__hash_nodeINS_17__hash_value_typeIyiEEPvEEEEEEEELi1ELb0EE5__getB8ue170006Ev, symObjAddr: 0x9E0, symBinAddr: 0x100004040, symSize: 0x14 }
  - { offsetInCU: 0xC96F, offset: 0xC96F, size: 0x8, addend: 0x0, symName: __ZNSt3__116allocator_traitsINS_9allocatorIPNS_16__hash_node_baseIPNS_11__hash_nodeINS_17__hash_value_typeIyiEEPvEEEEEEE10deallocateB8ue170006ERSB_PSA_m, symObjAddr: 0x9F4, symBinAddr: 0x100004054, symSize: 0x34 }
  - { offsetInCU: 0xC9B1, offset: 0xC9B1, size: 0x8, addend: 0x0, symName: __ZNSt3__125__bucket_list_deallocatorINS_9allocatorIPNS_16__hash_node_baseIPNS_11__hash_nodeINS_17__hash_value_typeIyiEEPvEEEEEEE7__allocB8ue170006Ev, symObjAddr: 0xA28, symBinAddr: 0x100004088, symSize: 0x24 }
  - { offsetInCU: 0xC9D7, offset: 0xC9D7, size: 0x8, addend: 0x0, symName: __ZNSt3__125__bucket_list_deallocatorINS_9allocatorIPNS_16__hash_node_baseIPNS_11__hash_nodeINS_17__hash_value_typeIyiEEPvEEEEEEE4sizeB8ue170006Ev, symObjAddr: 0xA4C, symBinAddr: 0x1000040AC, symSize: 0x24 }
  - { offsetInCU: 0xC9FD, offset: 0xC9FD, size: 0x8, addend: 0x0, symName: __ZNSt3__19allocatorIPNS_16__hash_node_baseIPNS_11__hash_nodeINS_17__hash_value_typeIyiEEPvEEEEE10deallocateB8ue170006EPS9_m, symObjAddr: 0xA70, symBinAddr: 0x1000040D0, symSize: 0x40 }
  - { offsetInCU: 0xCA3F, offset: 0xCA3F, size: 0x8, addend: 0x0, symName: __ZNSt3__117__compressed_pairImNS_9allocatorIPNS_16__hash_node_baseIPNS_11__hash_nodeINS_17__hash_value_typeIyiEEPvEEEEEEE6secondB8ue170006Ev, symObjAddr: 0xAB0, symBinAddr: 0x100004110, symSize: 0x24 }
  - { offsetInCU: 0xCA65, offset: 0xCA65, size: 0x8, addend: 0x0, symName: __ZNSt3__122__compressed_pair_elemINS_9allocatorIPNS_16__hash_node_baseIPNS_11__hash_nodeINS_17__hash_value_typeIyiEEPvEEEEEELi1ELb1EE5__getB8ue170006Ev, symObjAddr: 0xAD4, symBinAddr: 0x100004134, symSize: 0x14 }
  - { offsetInCU: 0xCA8B, offset: 0xCA8B, size: 0x8, addend: 0x0, symName: __ZNSt3__117__compressed_pairImNS_9allocatorIPNS_16__hash_node_baseIPNS_11__hash_nodeINS_17__hash_value_typeIyiEEPvEEEEEEE5firstB8ue170006Ev, symObjAddr: 0xAE8, symBinAddr: 0x100004148, symSize: 0x24 }
  - { offsetInCU: 0xCAB1, offset: 0xCAB1, size: 0x8, addend: 0x0, symName: __ZNSt3__122__compressed_pair_elemImLi0ELb0EE5__getB8ue170006Ev, symObjAddr: 0xB0C, symBinAddr: 0x10000416C, symSize: 0x14 }
  - { offsetInCU: 0xCAD7, offset: 0xCAD7, size: 0x8, addend: 0x0, symName: __ZNKSt3__19basic_iosIcNS_11char_traitsIcEEE5widenB8ue170006Ec, symObjAddr: 0xB20, symBinAddr: 0x100004180, symSize: 0x84 }
  - { offsetInCU: 0xCB40, offset: 0xCB40, size: 0x8, addend: 0x0, symName: __ZNKSt3__15ctypeIcE5widenB8ue170006Ec, symObjAddr: 0xBD0, symBinAddr: 0x100004230, symSize: 0x38 }
  - { offsetInCU: 0xCB89, offset: 0xCB89, size: 0x8, addend: 0x0, symName: __ZNSt3__112__hash_tableINS_17__hash_value_typeIyiEENS_22__unordered_map_hasherIyS2_NS_4hashIyEENS_8equal_toIyEELb1EEENS_21__unordered_map_equalIyS2_S7_S5_Lb1EEENS_9allocatorIS2_EEE25__emplace_unique_key_argsIyJRKNS_21piecewise_construct_tENS_5tupleIJRKyEEENSI_IJEEEEEENS_4pairINS_15__hash_iteratorIPNS_11__hash_nodeIS2_PvEEEEbEERKT_DpOT0_, symObjAddr: 0xC08, symBinAddr: 0x100004268, symSize: 0x4E8 }
  - { offsetInCU: 0xCC93, offset: 0xCC93, size: 0x8, addend: 0x0, symName: __ZNKSt3__115__hash_iteratorIPNS_11__hash_nodeINS_17__hash_value_typeIyiEEPvEEEptB8ue170006Ev, symObjAddr: 0x1120, symBinAddr: 0x100004780, symSize: 0x30 }
  - { offsetInCU: 0xCCB9, offset: 0xCCB9, size: 0x8, addend: 0x0, symName: __ZNSt3__112__hash_tableINS_17__hash_value_typeIyiEENS_22__unordered_map_hasherIyS2_NS_4hashIyEENS_8equal_toIyEELb1EEENS_21__unordered_map_equalIyS2_S7_S5_Lb1EEENS_9allocatorIS2_EEE13hash_functionB8ue170006Ev, symObjAddr: 0x1150, symBinAddr: 0x1000047B0, symSize: 0x28 }
  - { offsetInCU: 0xCCDF, offset: 0xCCDF, size: 0x8, addend: 0x0, symName: __ZNKSt3__122__unordered_map_hasherIyNS_17__hash_value_typeIyiEENS_4hashIyEENS_8equal_toIyEELb1EEclB8ue170006ERKy, symObjAddr: 0x1178, symBinAddr: 0x1000047D8, symSize: 0x30 }
  - { offsetInCU: 0xCD14, offset: 0xCD14, size: 0x8, addend: 0x0, symName: __ZNKSt3__112__hash_tableINS_17__hash_value_typeIyiEENS_22__unordered_map_hasherIyS2_NS_4hashIyEENS_8equal_toIyEELb1EEENS_21__unordered_map_equalIyS2_S7_S5_Lb1EEENS_9allocatorIS2_EEE12bucket_countB8ue170006Ev, symObjAddr: 0x11A8, symBinAddr: 0x100004808, symSize: 0x28 }
  - { offsetInCU: 0xCD3A, offset: 0xCD3A, size: 0x8, addend: 0x0, symName: __ZNKSt3__110unique_ptrIA_PNS_16__hash_node_baseIPNS_11__hash_nodeINS_17__hash_value_typeIyiEEPvEEEENS_25__bucket_list_deallocatorINS_9allocatorIS9_EEEEEixB8ue170006Em, symObjAddr: 0x1268, symBinAddr: 0x1000048C8, symSize: 0x34 }
  - { offsetInCU: 0xCD6F, offset: 0xCD6F, size: 0x8, addend: 0x0, symName: __ZNKSt3__116__hash_node_baseIPNS_11__hash_nodeINS_17__hash_value_typeIyiEEPvEEE6__hashB8ue170006Ev, symObjAddr: 0x129C, symBinAddr: 0x1000048FC, symSize: 0x18 }
  - { offsetInCU: 0xCD95, offset: 0xCD95, size: 0x8, addend: 0x0, symName: __ZNSt3__112__hash_tableINS_17__hash_value_typeIyiEENS_22__unordered_map_hasherIyS2_NS_4hashIyEENS_8equal_toIyEELb1EEENS_21__unordered_map_equalIyS2_S7_S5_Lb1EEENS_9allocatorIS2_EEE6key_eqB8ue170006Ev, symObjAddr: 0x12B4, symBinAddr: 0x100004914, symSize: 0x28 }
  - { offsetInCU: 0xCDBB, offset: 0xCDBB, size: 0x8, addend: 0x0, symName: __ZNKSt3__121__unordered_map_equalIyNS_17__hash_value_typeIyiEENS_8equal_toIyEENS_4hashIyEELb1EEclB8ue170006ERKS2_RKy, symObjAddr: 0x12DC, symBinAddr: 0x10000493C, symSize: 0x48 }
  - { offsetInCU: 0xCDFF, offset: 0xCDFF, size: 0x8, addend: 0x0, symName: __ZNSt3__112__hash_tableINS_17__hash_value_typeIyiEENS_22__unordered_map_hasherIyS2_NS_4hashIyEENS_8equal_toIyEELb1EEENS_21__unordered_map_equalIyS2_S7_S5_Lb1EEENS_9allocatorIS2_EEE21__construct_node_hashIRKNS_21piecewise_construct_tEJNS_5tupleIJRKyEEENSI_IJEEEEEENS_10unique_ptrINS_11__hash_nodeIS2_PvEENS_22__hash_node_destructorINSB_ISQ_EEEEEEmOT_DpOT0_, symObjAddr: 0x1324, symBinAddr: 0x100004984, symSize: 0x150 }
  - { offsetInCU: 0xCE9B, offset: 0xCE9B, size: 0x8, addend: 0x0, symName: __ZNSt3__112__hash_tableINS_17__hash_value_typeIyiEENS_22__unordered_map_hasherIyS2_NS_4hashIyEENS_8equal_toIyEELb1EEENS_21__unordered_map_equalIyS2_S7_S5_Lb1EEENS_9allocatorIS2_EEE4sizeB8ue170006Ev, symObjAddr: 0x1474, symBinAddr: 0x100004AD4, symSize: 0x28 }
  - { offsetInCU: 0xCEC1, offset: 0xCEC1, size: 0x8, addend: 0x0, symName: __ZNSt3__112__hash_tableINS_17__hash_value_typeIyiEENS_22__unordered_map_hasherIyS2_NS_4hashIyEENS_8equal_toIyEELb1EEENS_21__unordered_map_equalIyS2_S7_S5_Lb1EEENS_9allocatorIS2_EEE15max_load_factorB8ue170006Ev, symObjAddr: 0x149C, symBinAddr: 0x100004AFC, symSize: 0x28 }
  - { offsetInCU: 0xCEE7, offset: 0xCEE7, size: 0x8, addend: 0x0, symName: __ZNSt3__112__hash_tableINS_17__hash_value_typeIyiEENS_22__unordered_map_hasherIyS2_NS_4hashIyEENS_8equal_toIyEELb1EEENS_21__unordered_map_equalIyS2_S7_S5_Lb1EEENS_9allocatorIS2_EEE15__rehash_uniqueB8ue170006Em, symObjAddr: 0x14C4, symBinAddr: 0x100004B24, symSize: 0x2C }
  - { offsetInCU: 0xCF1B, offset: 0xCF1B, size: 0x8, addend: 0x0, symName: __Z4ceilB8ue170006f, symObjAddr: 0x156C, symBinAddr: 0x100004BCC, symSize: 0x18 }
  - { offsetInCU: 0xCF4A, offset: 0xCF4A, size: 0x8, addend: 0x0, symName: __ZNSt3__116__hash_node_baseIPNS_11__hash_nodeINS_17__hash_value_typeIyiEEPvEEE5__ptrB8ue170006Ev, symObjAddr: 0x1584, symBinAddr: 0x100004BE4, symSize: 0x24 }
  - { offsetInCU: 0xCF70, offset: 0xCF70, size: 0x8, addend: 0x0, symName: __ZNKSt3__110unique_ptrINS_11__hash_nodeINS_17__hash_value_typeIyiEEPvEENS_22__hash_node_destructorINS_9allocatorIS5_EEEEEptB8ue170006Ev, symObjAddr: 0x15A8, symBinAddr: 0x100004C08, symSize: 0x28 }
  - { offsetInCU: 0xCF96, offset: 0xCF96, size: 0x8, addend: 0x0, symName: __ZNKSt3__110unique_ptrINS_11__hash_nodeINS_17__hash_value_typeIyiEEPvEENS_22__hash_node_destructorINS_9allocatorIS5_EEEEE3getB8ue170006Ev, symObjAddr: 0x15D0, symBinAddr: 0x100004C30, symSize: 0x28 }
  - { offsetInCU: 0xCFBC, offset: 0xCFBC, size: 0x8, addend: 0x0, symName: __ZNSt3__110unique_ptrINS_11__hash_nodeINS_17__hash_value_typeIyiEEPvEENS_22__hash_node_destructorINS_9allocatorIS5_EEEEE7releaseB8ue170006Ev, symObjAddr: 0x15F8, symBinAddr: 0x100004C58, symSize: 0x44 }
  - { offsetInCU: 0xCFF1, offset: 0xCFF1, size: 0x8, addend: 0x0, symName: __ZNSt3__110unique_ptrINS_11__hash_nodeINS_17__hash_value_typeIyiEEPvEENS_22__hash_node_destructorINS_9allocatorIS5_EEEEED1B8ue170006Ev, symObjAddr: 0x163C, symBinAddr: 0x100004C9C, symSize: 0x2C }
  - { offsetInCU: 0xD01B, offset: 0xD01B, size: 0x8, addend: 0x0, symName: __ZNSt3__115__hash_iteratorIPNS_11__hash_nodeINS_17__hash_value_typeIyiEEPvEEEC1B8ue170006EPNS_16__hash_node_baseIS6_EE, symObjAddr: 0x1668, symBinAddr: 0x100004CC8, symSize: 0x34 }
  - { offsetInCU: 0xD05E, offset: 0xD05E, size: 0x8, addend: 0x0, symName: __ZNSt3__14pairINS_15__hash_iteratorIPNS_11__hash_nodeINS_17__hash_value_typeIyiEEPvEEEEbEC1B8ue170006IS8_RbLS5_0EEEOT_OT0_, symObjAddr: 0x169C, symBinAddr: 0x100004CFC, symSize: 0x3C }
  - { offsetInCU: 0xD0BC, offset: 0xD0BC, size: 0x8, addend: 0x0, symName: __ZNSt3__117__compressed_pairImNS_22__unordered_map_hasherIyNS_17__hash_value_typeIyiEENS_4hashIyEENS_8equal_toIyEELb1EEEE6secondB8ue170006Ev, symObjAddr: 0x16D8, symBinAddr: 0x100004D38, symSize: 0x24 }
  - { offsetInCU: 0xD0E2, offset: 0xD0E2, size: 0x8, addend: 0x0, symName: __ZNSt3__122__compressed_pair_elemINS_22__unordered_map_hasherIyNS_17__hash_value_typeIyiEENS_4hashIyEENS_8equal_toIyEELb1EEELi1ELb1EE5__getB8ue170006Ev, symObjAddr: 0x16FC, symBinAddr: 0x100004D5C, symSize: 0x14 }
  - { offsetInCU: 0xD108, offset: 0xD108, size: 0x8, addend: 0x0, symName: __ZNKSt3__113__scalar_hashIyLm1EEclB8ue170006Ey, symObjAddr: 0x1710, symBinAddr: 0x100004D70, symSize: 0x20 }
  - { offsetInCU: 0xD16E, offset: 0xD16E, size: 0x8, addend: 0x0, symName: __ZNKSt3__110unique_ptrIA_PNS_16__hash_node_baseIPNS_11__hash_nodeINS_17__hash_value_typeIyiEEPvEEEENS_25__bucket_list_deallocatorINS_9allocatorIS9_EEEEE11get_deleterB8ue170006Ev, symObjAddr: 0x1730, symBinAddr: 0x100004D90, symSize: 0x24 }
  - { offsetInCU: 0xD194, offset: 0xD194, size: 0x8, addend: 0x0, symName: __ZNKSt3__125__bucket_list_deallocatorINS_9allocatorIPNS_16__hash_node_baseIPNS_11__hash_nodeINS_17__hash_value_typeIyiEEPvEEEEEEE4sizeB8ue170006Ev, symObjAddr: 0x1754, symBinAddr: 0x100004DB4, symSize: 0x28 }
  - { offsetInCU: 0xD1BA, offset: 0xD1BA, size: 0x8, addend: 0x0, symName: __ZNKSt3__117__compressed_pairIPPNS_16__hash_node_baseIPNS_11__hash_nodeINS_17__hash_value_typeIyiEEPvEEEENS_25__bucket_list_deallocatorINS_9allocatorIS9_EEEEE6secondB8ue170006Ev, symObjAddr: 0x177C, symBinAddr: 0x100004DDC, symSize: 0x28 }
  - { offsetInCU: 0xD1E0, offset: 0xD1E0, size: 0x8, addend: 0x0, symName: __ZNKSt3__122__compressed_pair_elemINS_25__bucket_list_deallocatorINS_9allocatorIPNS_16__hash_node_baseIPNS_11__hash_nodeINS_17__hash_value_typeIyiEEPvEEEEEEEELi1ELb0EE5__getB8ue170006Ev, symObjAddr: 0x17A4, symBinAddr: 0x100004E04, symSize: 0x14 }
  - { offsetInCU: 0xD206, offset: 0xD206, size: 0x8, addend: 0x0, symName: __ZNKSt3__117__compressed_pairImNS_9allocatorIPNS_16__hash_node_baseIPNS_11__hash_nodeINS_17__hash_value_typeIyiEEPvEEEEEEE5firstB8ue170006Ev, symObjAddr: 0x17B8, symBinAddr: 0x100004E18, symSize: 0x24 }
  - { offsetInCU: 0xD22C, offset: 0xD22C, size: 0x8, addend: 0x0, symName: __ZNKSt3__122__compressed_pair_elemImLi0ELb0EE5__getB8ue170006Ev, symObjAddr: 0x17DC, symBinAddr: 0x100004E3C, symSize: 0x14 }
  - { offsetInCU: 0xD252, offset: 0xD252, size: 0x8, addend: 0x0, symName: __ZNKSt3__117__compressed_pairIPPNS_16__hash_node_baseIPNS_11__hash_nodeINS_17__hash_value_typeIyiEEPvEEEENS_25__bucket_list_deallocatorINS_9allocatorIS9_EEEEE5firstB8ue170006Ev, symObjAddr: 0x17F0, symBinAddr: 0x100004E50, symSize: 0x24 }
  - { offsetInCU: 0xD278, offset: 0xD278, size: 0x8, addend: 0x0, symName: __ZNKSt3__122__compressed_pair_elemIPPNS_16__hash_node_baseIPNS_11__hash_nodeINS_17__hash_value_typeIyiEEPvEEEELi0ELb0EE5__getB8ue170006Ev, symObjAddr: 0x1814, symBinAddr: 0x100004E74, symSize: 0x14 }
  - { offsetInCU: 0xD29E, offset: 0xD29E, size: 0x8, addend: 0x0, symName: __ZNSt3__117__compressed_pairIfNS_21__unordered_map_equalIyNS_17__hash_value_typeIyiEENS_8equal_toIyEENS_4hashIyEELb1EEEE6secondB8ue170006Ev, symObjAddr: 0x1828, symBinAddr: 0x100004E88, symSize: 0x24 }
  - { offsetInCU: 0xD2C4, offset: 0xD2C4, size: 0x8, addend: 0x0, symName: __ZNSt3__122__compressed_pair_elemINS_21__unordered_map_equalIyNS_17__hash_value_typeIyiEENS_8equal_toIyEENS_4hashIyEELb1EEELi1ELb1EE5__getB8ue170006Ev, symObjAddr: 0x184C, symBinAddr: 0x100004EAC, symSize: 0x14 }
  - { offsetInCU: 0xD2EA, offset: 0xD2EA, size: 0x8, addend: 0x0, symName: __ZNKSt3__18equal_toIyEclB8ue170006ERKyS3_, symObjAddr: 0x1860, symBinAddr: 0x100004EC0, symSize: 0x34 }
  - { offsetInCU: 0xD32E, offset: 0xD32E, size: 0x8, addend: 0x0, symName: __ZNKSt3__117__hash_value_typeIyiE11__get_valueB8ue170006Ev, symObjAddr: 0x1894, symBinAddr: 0x100004EF4, symSize: 0x14 }
  - { offsetInCU: 0xD354, offset: 0xD354, size: 0x8, addend: 0x0, symName: __ZNSt3__116allocator_traitsINS_9allocatorINS_11__hash_nodeINS_17__hash_value_typeIyiEEPvEEEEE8allocateB8ue170006ERS7_m, symObjAddr: 0x18A8, symBinAddr: 0x100004F08, symSize: 0x2C }
  - { offsetInCU: 0xD387, offset: 0xD387, size: 0x8, addend: 0x0, symName: __ZNSt3__122__hash_node_destructorINS_9allocatorINS_11__hash_nodeINS_17__hash_value_typeIyiEEPvEEEEEC1B8ue170006ERS7_b, symObjAddr: 0x18D4, symBinAddr: 0x100004F34, symSize: 0x48 }
  - { offsetInCU: 0xD3D4, offset: 0xD3D4, size: 0x8, addend: 0x0, symName: __ZNSt3__110unique_ptrINS_11__hash_nodeINS_17__hash_value_typeIyiEEPvEENS_22__hash_node_destructorINS_9allocatorIS5_EEEEEC1B8ue170006ILb1EvEEPS5_NS_16__dependent_typeINS_27__unique_ptr_deleter_sfinaeIS9_EEXT_EE20__good_rval_ref_typeE, symObjAddr: 0x191C, symBinAddr: 0x100004F7C, symSize: 0x3C }
  - { offsetInCU: 0xD425, offset: 0xD425, size: 0x8, addend: 0x0, symName: __ZNSt3__116allocator_traitsINS_9allocatorINS_11__hash_nodeINS_17__hash_value_typeIyiEEPvEEEEE9constructB8ue170006INS_4pairIKyiEEJRKNS_21piecewise_construct_tENS_5tupleIJRSB_EEENSG_IJEEEEvEEvRS7_PT_DpOT0_, symObjAddr: 0x1958, symBinAddr: 0x100004FB8, symSize: 0x44 }
  - { offsetInCU: 0xD4A4, offset: 0xD4A4, size: 0x8, addend: 0x0, symName: __ZNSt3__110unique_ptrINS_11__hash_nodeINS_17__hash_value_typeIyiEEPvEENS_22__hash_node_destructorINS_9allocatorIS5_EEEEE11get_deleterB8ue170006Ev, symObjAddr: 0x199C, symBinAddr: 0x100004FFC, symSize: 0x24 }
  - { offsetInCU: 0xD4CA, offset: 0xD4CA, size: 0x8, addend: 0x0, symName: __ZNSt3__19allocatorINS_11__hash_nodeINS_17__hash_value_typeIyiEEPvEEE8allocateB8ue170006Em, symObjAddr: 0x19C0, symBinAddr: 0x100005020, symSize: 0x58 }
  - { offsetInCU: 0xD508, offset: 0xD508, size: 0x8, addend: 0x0, symName: __ZNSt3__116allocator_traitsINS_9allocatorINS_11__hash_nodeINS_17__hash_value_typeIyiEEPvEEEEE8max_sizeB8ue170006IS7_vEEmRKS7_, symObjAddr: 0x1A18, symBinAddr: 0x100005078, symSize: 0x24 }
  - { offsetInCU: 0xD536, offset: 0xD536, size: 0x8, addend: 0x0, symName: __ZNKSt3__19allocatorINS_11__hash_nodeINS_17__hash_value_typeIyiEEPvEEE8max_sizeB8ue170006Ev, symObjAddr: 0x1A98, symBinAddr: 0x1000050F8, symSize: 0x14 }
  - { offsetInCU: 0xD55C, offset: 0xD55C, size: 0x8, addend: 0x0, symName: __ZNSt3__122__hash_node_destructorINS_9allocatorINS_11__hash_nodeINS_17__hash_value_typeIyiEEPvEEEEEC2B8ue170006ERS7_b, symObjAddr: 0x1AD0, symBinAddr: 0x100005130, symSize: 0x38 }
  - { offsetInCU: 0xD5A4, offset: 0xD5A4, size: 0x8, addend: 0x0, symName: __ZNSt3__110unique_ptrINS_11__hash_nodeINS_17__hash_value_typeIyiEEPvEENS_22__hash_node_destructorINS_9allocatorIS5_EEEEEC2B8ue170006ILb1EvEEPS5_NS_16__dependent_typeINS_27__unique_ptr_deleter_sfinaeIS9_EEXT_EE20__good_rval_ref_typeE, symObjAddr: 0x1B08, symBinAddr: 0x100005168, symSize: 0x48 }
  - { offsetInCU: 0xD5F5, offset: 0xD5F5, size: 0x8, addend: 0x0, symName: __ZNSt3__117__compressed_pairIPNS_11__hash_nodeINS_17__hash_value_typeIyiEEPvEENS_22__hash_node_destructorINS_9allocatorIS5_EEEEEC1B8ue170006IRS6_SA_EEOT_OT0_, symObjAddr: 0x1B50, symBinAddr: 0x1000051B0, symSize: 0x3C }
  - { offsetInCU: 0xD64D, offset: 0xD64D, size: 0x8, addend: 0x0, symName: __ZNSt3__117__compressed_pairIPNS_11__hash_nodeINS_17__hash_value_typeIyiEEPvEENS_22__hash_node_destructorINS_9allocatorIS5_EEEEEC2B8ue170006IRS6_SA_EEOT_OT0_, symObjAddr: 0x1B8C, symBinAddr: 0x1000051EC, symSize: 0x48 }
  - { offsetInCU: 0xD6A5, offset: 0xD6A5, size: 0x8, addend: 0x0, symName: __ZNSt3__122__compressed_pair_elemIPNS_11__hash_nodeINS_17__hash_value_typeIyiEEPvEELi0ELb0EEC2B8ue170006IRS6_vEEOT_, symObjAddr: 0x1BD4, symBinAddr: 0x100005234, symSize: 0x24 }
  - { offsetInCU: 0xD6E7, offset: 0xD6E7, size: 0x8, addend: 0x0, symName: __ZNSt3__122__compressed_pair_elemINS_22__hash_node_destructorINS_9allocatorINS_11__hash_nodeINS_17__hash_value_typeIyiEEPvEEEEEELi1ELb0EEC2B8ue170006IS9_vEEOT_, symObjAddr: 0x1BF8, symBinAddr: 0x100005258, symSize: 0x24 }
  - { offsetInCU: 0xD729, offset: 0xD729, size: 0x8, addend: 0x0, symName: __ZNSt3__19allocatorINS_11__hash_nodeINS_17__hash_value_typeIyiEEPvEEE9constructB8ue170006INS_4pairIKyiEEJRKNS_21piecewise_construct_tENS_5tupleIJRS9_EEENSE_IJEEEEEEvPT_DpOT0_, symObjAddr: 0x1C1C, symBinAddr: 0x10000527C, symSize: 0x44 }
  - { offsetInCU: 0xD7A5, offset: 0xD7A5, size: 0x8, addend: 0x0, symName: __ZNSt3__14pairIKyiEC1B8ue170006IJRS1_EJEEENS_21piecewise_construct_tENS_5tupleIJDpT_EEENS6_IJDpT0_EEE, symObjAddr: 0x1C60, symBinAddr: 0x1000052C0, symSize: 0x44 }
  - { offsetInCU: 0xD80C, offset: 0xD80C, size: 0x8, addend: 0x0, symName: __ZNSt3__14pairIKyiEC1B8ue170006IJRS1_EJEJLm0EEJEEENS_21piecewise_construct_tERNS_5tupleIJDpT_EEERNS6_IJDpT0_EEENS_15__tuple_indicesIJXspT1_EEEENSF_IJXspT2_EEEE, symObjAddr: 0x1CA4, symBinAddr: 0x100005304, symSize: 0x3C }
  - { offsetInCU: 0xD89C, offset: 0xD89C, size: 0x8, addend: 0x0, symName: __ZNSt3__14pairIKyiEC2B8ue170006IJRS1_EJEJLm0EEJEEENS_21piecewise_construct_tERNS_5tupleIJDpT_EEERNS6_IJDpT0_EEENS_15__tuple_indicesIJXspT1_EEEENSF_IJXspT2_EEEE, symObjAddr: 0x1CE0, symBinAddr: 0x100005340, symSize: 0x48 }
  - { offsetInCU: 0xD92C, offset: 0xD92C, size: 0x8, addend: 0x0, symName: __ZNSt3__112__tuple_leafILm0ERKyLb0EE3getB8ue170006Ev, symObjAddr: 0x1D4C, symBinAddr: 0x1000053AC, symSize: 0x18 }
  - { offsetInCU: 0xD952, offset: 0xD952, size: 0x8, addend: 0x0, symName: __ZNSt3__117__compressed_pairIPNS_11__hash_nodeINS_17__hash_value_typeIyiEEPvEENS_22__hash_node_destructorINS_9allocatorIS5_EEEEE6secondB8ue170006Ev, symObjAddr: 0x1D64, symBinAddr: 0x1000053C4, symSize: 0x28 }
  - { offsetInCU: 0xD978, offset: 0xD978, size: 0x8, addend: 0x0, symName: __ZNSt3__122__compressed_pair_elemINS_22__hash_node_destructorINS_9allocatorINS_11__hash_nodeINS_17__hash_value_typeIyiEEPvEEEEEELi1ELb0EE5__getB8ue170006Ev, symObjAddr: 0x1D8C, symBinAddr: 0x1000053EC, symSize: 0x14 }
  - { offsetInCU: 0xD99E, offset: 0xD99E, size: 0x8, addend: 0x0, symName: __ZNSt3__117__compressed_pairImNS_22__unordered_map_hasherIyNS_17__hash_value_typeIyiEENS_4hashIyEENS_8equal_toIyEELb1EEEE5firstB8ue170006Ev, symObjAddr: 0x1DA0, symBinAddr: 0x100005400, symSize: 0x24 }
  - { offsetInCU: 0xD9C4, offset: 0xD9C4, size: 0x8, addend: 0x0, symName: __ZNSt3__117__compressed_pairIfNS_21__unordered_map_equalIyNS_17__hash_value_typeIyiEENS_8equal_toIyEENS_4hashIyEELb1EEEE5firstB8ue170006Ev, symObjAddr: 0x1DC4, symBinAddr: 0x100005424, symSize: 0x24 }
  - { offsetInCU: 0xD9EA, offset: 0xD9EA, size: 0x8, addend: 0x0, symName: __ZNSt3__122__compressed_pair_elemIfLi0ELb0EE5__getB8ue170006Ev, symObjAddr: 0x1DE8, symBinAddr: 0x100005448, symSize: 0x14 }
  - { offsetInCU: 0xDA10, offset: 0xDA10, size: 0x8, addend: 0x0, symName: __ZNSt3__112__hash_tableINS_17__hash_value_typeIyiEENS_22__unordered_map_hasherIyS2_NS_4hashIyEENS_8equal_toIyEELb1EEENS_21__unordered_map_equalIyS2_S7_S5_Lb1EEENS_9allocatorIS2_EEE8__rehashILb1EEEvm, symObjAddr: 0x1DFC, symBinAddr: 0x10000545C, symSize: 0x1A8 }
  - { offsetInCU: 0xDA60, offset: 0xDA60, size: 0x8, addend: 0x0, symName: __ZNSt3__112__hash_tableINS_17__hash_value_typeIyiEENS_22__unordered_map_hasherIyS2_NS_4hashIyEENS_8equal_toIyEELb1EEENS_21__unordered_map_equalIyS2_S7_S5_Lb1EEENS_9allocatorIS2_EEE11__do_rehashILb1EEEvm, symObjAddr: 0x1FA4, symBinAddr: 0x100005604, symSize: 0x288 }
  - { offsetInCU: 0xDB47, offset: 0xDB47, size: 0x8, addend: 0x0, symName: __ZNSt3__110unique_ptrIA_PNS_16__hash_node_baseIPNS_11__hash_nodeINS_17__hash_value_typeIyiEEPvEEEENS_25__bucket_list_deallocatorINS_9allocatorIS9_EEEEE11get_deleterB8ue170006Ev, symObjAddr: 0x2298, symBinAddr: 0x1000058F8, symSize: 0x24 }
  - { offsetInCU: 0xDB6D, offset: 0xDB6D, size: 0x8, addend: 0x0, symName: __ZNSt3__110unique_ptrIA_PNS_16__hash_node_baseIPNS_11__hash_nodeINS_17__hash_value_typeIyiEEPvEEEENS_25__bucket_list_deallocatorINS_9allocatorIS9_EEEEE5resetB8ue170006IPS9_EENS_9enable_ifIXsr28_CheckArrayPointerConversionIT_EE5valueEvE4typeESJ_, symObjAddr: 0x22BC, symBinAddr: 0x10000591C, symSize: 0x78 }
  - { offsetInCU: 0xDBBA, offset: 0xDBBA, size: 0x8, addend: 0x0, symName: __ZNSt3__116allocator_traitsINS_9allocatorIPNS_16__hash_node_baseIPNS_11__hash_nodeINS_17__hash_value_typeIyiEEPvEEEEEEE8allocateB8ue170006ERSB_m, symObjAddr: 0x2334, symBinAddr: 0x100005994, symSize: 0x2C }
  - { offsetInCU: 0xDBED, offset: 0xDBED, size: 0x8, addend: 0x0, symName: __ZNSt3__19allocatorIPNS_16__hash_node_baseIPNS_11__hash_nodeINS_17__hash_value_typeIyiEEPvEEEEE8allocateB8ue170006Em, symObjAddr: 0x2360, symBinAddr: 0x1000059C0, symSize: 0x58 }
  - { offsetInCU: 0xDC2B, offset: 0xDC2B, size: 0x8, addend: 0x0, symName: __ZNSt3__116allocator_traitsINS_9allocatorIPNS_16__hash_node_baseIPNS_11__hash_nodeINS_17__hash_value_typeIyiEEPvEEEEEEE8max_sizeB8ue170006ISB_vEEmRKSB_, symObjAddr: 0x23B8, symBinAddr: 0x100005A18, symSize: 0x24 }
  - { offsetInCU: 0xDC59, offset: 0xDC59, size: 0x8, addend: 0x0, symName: __ZNKSt3__19allocatorIPNS_16__hash_node_baseIPNS_11__hash_nodeINS_17__hash_value_typeIyiEEPvEEEEE8max_sizeB8ue170006Ev, symObjAddr: 0x23DC, symBinAddr: 0x100005A3C, symSize: 0x14 }
  - { offsetInCU: 0xDC89, offset: 0xDC89, size: 0x8, addend: 0x0, symName: __ZNKSt3__16__lessIvvEclB8ue170006ImmEEbRKT_RKT0_, symObjAddr: 0x2460, symBinAddr: 0x100005AC0, symSize: 0x34 }
  - { offsetInCU: 0xDCDD, offset: 0xDCDD, size: 0x8, addend: 0x0, symName: __ZNKSt3__117__compressed_pairIPNS_11__hash_nodeINS_17__hash_value_typeIyiEEPvEENS_22__hash_node_destructorINS_9allocatorIS5_EEEEE5firstB8ue170006Ev, symObjAddr: 0x2494, symBinAddr: 0x100005AF4, symSize: 0x24 }
  - { offsetInCU: 0xDD03, offset: 0xDD03, size: 0x8, addend: 0x0, symName: __ZNKSt3__122__compressed_pair_elemIPNS_11__hash_nodeINS_17__hash_value_typeIyiEEPvEELi0ELb0EE5__getB8ue170006Ev, symObjAddr: 0x24B8, symBinAddr: 0x100005B18, symSize: 0x14 }
  - { offsetInCU: 0xDD29, offset: 0xDD29, size: 0x8, addend: 0x0, symName: __ZNSt3__117__compressed_pairIPNS_11__hash_nodeINS_17__hash_value_typeIyiEEPvEENS_22__hash_node_destructorINS_9allocatorIS5_EEEEE5firstB8ue170006Ev, symObjAddr: 0x24CC, symBinAddr: 0x100005B2C, symSize: 0x24 }
  - { offsetInCU: 0xDD4F, offset: 0xDD4F, size: 0x8, addend: 0x0, symName: __ZNSt3__122__compressed_pair_elemIPNS_11__hash_nodeINS_17__hash_value_typeIyiEEPvEELi0ELb0EE5__getB8ue170006Ev, symObjAddr: 0x24F0, symBinAddr: 0x100005B50, symSize: 0x14 }
  - { offsetInCU: 0xDD75, offset: 0xDD75, size: 0x8, addend: 0x0, symName: __ZNSt3__110unique_ptrINS_11__hash_nodeINS_17__hash_value_typeIyiEEPvEENS_22__hash_node_destructorINS_9allocatorIS5_EEEEED2B8ue170006Ev, symObjAddr: 0x2504, symBinAddr: 0x100005B64, symSize: 0x30 }
  - { offsetInCU: 0xDD9F, offset: 0xDD9F, size: 0x8, addend: 0x0, symName: __ZNSt3__110unique_ptrINS_11__hash_nodeINS_17__hash_value_typeIyiEEPvEENS_22__hash_node_destructorINS_9allocatorIS5_EEEEE5resetB8ue170006EPS5_, symObjAddr: 0x2534, symBinAddr: 0x100005B94, symSize: 0x78 }
  - { offsetInCU: 0xDDE3, offset: 0xDDE3, size: 0x8, addend: 0x0, symName: __ZNSt3__122__hash_node_destructorINS_9allocatorINS_11__hash_nodeINS_17__hash_value_typeIyiEEPvEEEEEclB8ue170006EPS6_, symObjAddr: 0x25AC, symBinAddr: 0x100005C0C, symSize: 0x94 }
  - { offsetInCU: 0xDE18, offset: 0xDE18, size: 0x8, addend: 0x0, symName: __ZNSt3__115__hash_iteratorIPNS_11__hash_nodeINS_17__hash_value_typeIyiEEPvEEEC2B8ue170006EPNS_16__hash_node_baseIS6_EE, symObjAddr: 0x2640, symBinAddr: 0x100005CA0, symSize: 0x20 }
  - { offsetInCU: 0xDE51, offset: 0xDE51, size: 0x8, addend: 0x0, symName: __ZNSt3__14pairINS_15__hash_iteratorIPNS_11__hash_nodeINS_17__hash_value_typeIyiEEPvEEEEbEC2B8ue170006IS8_RbLS5_0EEEOT_OT0_, symObjAddr: 0x2660, symBinAddr: 0x100005CC0, symSize: 0x38 }
  - { offsetInCU: 0xDEAF, offset: 0xDEAF, size: 0x8, addend: 0x0, symName: __ZNSt3__15tupleIJRKyEEC1B8ue170006INS_4_AndELi0EEES2_, symObjAddr: 0x2698, symBinAddr: 0x100005CF8, symSize: 0x34 }
  - { offsetInCU: 0xDEF7, offset: 0xDEF7, size: 0x8, addend: 0x0, symName: __ZNSt3__15tupleIJRKyEEC2B8ue170006INS_4_AndELi0EEES2_, symObjAddr: 0x26CC, symBinAddr: 0x100005D2C, symSize: 0x34 }
  - { offsetInCU: 0xDF3F, offset: 0xDF3F, size: 0x8, addend: 0x0, symName: __ZNSt3__112__tuple_implINS_15__tuple_indicesIJLm0EEEEJRKyEEC1B8ue170006IJLm0EEJS4_EJEJEJS4_EEENS1_IJXspT_EEEENS_13__tuple_typesIJDpT0_EEENS1_IJXspT1_EEEENS8_IJDpT2_EEEDpOT3_, symObjAddr: 0x2700, symBinAddr: 0x100005D60, symSize: 0x34 }
  - { offsetInCU: 0xDFD4, offset: 0xDFD4, size: 0x8, addend: 0x0, symName: __ZNSt3__112__tuple_implINS_15__tuple_indicesIJLm0EEEEJRKyEEC2B8ue170006IJLm0EEJS4_EJEJEJS4_EEENS1_IJXspT_EEEENS_13__tuple_typesIJDpT0_EEENS1_IJXspT1_EEEENS8_IJDpT2_EEEDpOT3_, symObjAddr: 0x2734, symBinAddr: 0x100005D94, symSize: 0x34 }
  - { offsetInCU: 0xE069, offset: 0xE069, size: 0x8, addend: 0x0, symName: __ZNSt3__112__tuple_leafILm0ERKyLb0EEC2B8ue170006IS2_vEEOT_, symObjAddr: 0x2768, symBinAddr: 0x100005DC8, symSize: 0x20 }
  - { offsetInCU: 0xE0AC, offset: 0xE0AC, size: 0x8, addend: 0x0, symName: __ZNSt3__114pointer_traitsIPNS_17__hash_value_typeIyiEEE10pointer_toB8ue170006ERS2_, symObjAddr: 0x2788, symBinAddr: 0x100005DE8, symSize: 0x14 }
  - { offsetInCU: 0xE0CF, offset: 0xE0CF, size: 0x8, addend: 0x0, symName: __ZNSt3__111char_traitsIcE6lengthB8ue170006EPKc, symObjAddr: 0x2988, symBinAddr: 0x100005FE8, symSize: 0x34 }
  - { offsetInCU: 0xE110, offset: 0xE110, size: 0x8, addend: 0x0, symName: __ZNKSt3__113basic_ostreamIcNS_11char_traitsIcEEE6sentrycvbB8ue170006Ev, symObjAddr: 0x29BC, symBinAddr: 0x10000601C, symSize: 0x1C }
  - { offsetInCU: 0xE136, offset: 0xE136, size: 0x8, addend: 0x0, symName: __ZNSt3__119ostreambuf_iteratorIcNS_11char_traitsIcEEEC1B8ue170006ERNS_13basic_ostreamIcS2_EE, symObjAddr: 0x2C18, symBinAddr: 0x100006278, symSize: 0x34 }
  - { offsetInCU: 0xE16E, offset: 0xE16E, size: 0x8, addend: 0x0, symName: __ZNKSt3__18ios_base5flagsB8ue170006Ev, symObjAddr: 0x2C4C, symBinAddr: 0x1000062AC, symSize: 0x18 }
  - { offsetInCU: 0xE196, offset: 0xE196, size: 0x8, addend: 0x0, symName: __ZNKSt3__19basic_iosIcNS_11char_traitsIcEEE4fillB8ue170006Ev, symObjAddr: 0x2C64, symBinAddr: 0x1000062C4, symSize: 0x64 }
  - { offsetInCU: 0xE1BE, offset: 0xE1BE, size: 0x8, addend: 0x0, symName: __ZNKSt3__119ostreambuf_iteratorIcNS_11char_traitsIcEEE6failedB8ue170006Ev, symObjAddr: 0x2CC8, symBinAddr: 0x100006328, symSize: 0x24 }
  - { offsetInCU: 0xE1E4, offset: 0xE1E4, size: 0x8, addend: 0x0, symName: __ZNSt3__19basic_iosIcNS_11char_traitsIcEEE8setstateB8ue170006Ej, symObjAddr: 0x2CEC, symBinAddr: 0x10000634C, symSize: 0x2C }
  - { offsetInCU: 0xE219, offset: 0xE219, size: 0x8, addend: 0x0, symName: __ZNKSt3__18ios_base5widthB8ue170006Ev, symObjAddr: 0x2D18, symBinAddr: 0x100006378, symSize: 0x18 }
  - { offsetInCU: 0xE241, offset: 0xE241, size: 0x8, addend: 0x0, symName: __ZNSt3__115basic_streambufIcNS_11char_traitsIcEEE5sputnB8ue170006EPKcl, symObjAddr: 0x2D30, symBinAddr: 0x100006390, symSize: 0x3C }
  - { offsetInCU: 0xE283, offset: 0xE283, size: 0x8, addend: 0x0, symName: __ZNSt3__112basic_stringIcNS_11char_traitsIcEENS_9allocatorIcEEEC1B8ue170006Emc, symObjAddr: 0x2D6C, symBinAddr: 0x1000063CC, symSize: 0x3C }
  - { offsetInCU: 0xE2CB, offset: 0xE2CB, size: 0x8, addend: 0x0, symName: __ZNKSt3__112basic_stringIcNS_11char_traitsIcEENS_9allocatorIcEEE4dataB8ue170006Ev, symObjAddr: 0x2DA8, symBinAddr: 0x100006408, symSize: 0x28 }
  - { offsetInCU: 0xE2F1, offset: 0xE2F1, size: 0x8, addend: 0x0, symName: __ZNSt3__18ios_base5widthB8ue170006El, symObjAddr: 0x2DD0, symBinAddr: 0x100006430, symSize: 0x2C }
  - { offsetInCU: 0xE337, offset: 0xE337, size: 0x8, addend: 0x0, symName: __ZNSt3__112basic_stringIcNS_11char_traitsIcEENS_9allocatorIcEEEC2B8ue170006Emc, symObjAddr: 0x2DFC, symBinAddr: 0x10000645C, symSize: 0x4C }
  - { offsetInCU: 0xE384, offset: 0xE384, size: 0x8, addend: 0x0, symName: __ZNSt3__117__compressed_pairINS_12basic_stringIcNS_11char_traitsIcEENS_9allocatorIcEEE5__repES5_EC1B8ue170006INS_18__default_init_tagESA_EEOT_OT0_, symObjAddr: 0x2E48, symBinAddr: 0x1000064A8, symSize: 0x3C }
  - { offsetInCU: 0xE3DC, offset: 0xE3DC, size: 0x8, addend: 0x0, symName: __ZNSt3__117__compressed_pairINS_12basic_stringIcNS_11char_traitsIcEENS_9allocatorIcEEE5__repES5_EC2B8ue170006INS_18__default_init_tagESA_EEOT_OT0_, symObjAddr: 0x2E84, symBinAddr: 0x1000064E4, symSize: 0x3C }
  - { offsetInCU: 0xE434, offset: 0xE434, size: 0x8, addend: 0x0, symName: __ZNSt3__122__compressed_pair_elemINS_12basic_stringIcNS_11char_traitsIcEENS_9allocatorIcEEE5__repELi0ELb0EEC2B8ue170006ENS_18__default_init_tagE, symObjAddr: 0x2EC0, symBinAddr: 0x100006520, symSize: 0x14 }
  - { offsetInCU: 0xE469, offset: 0xE469, size: 0x8, addend: 0x0, symName: __ZNSt3__122__compressed_pair_elemINS_9allocatorIcEELi1ELb1EEC2B8ue170006ENS_18__default_init_tagE, symObjAddr: 0x2ED4, symBinAddr: 0x100006534, symSize: 0x2C }
  - { offsetInCU: 0xE49E, offset: 0xE49E, size: 0x8, addend: 0x0, symName: __ZNSt3__19allocatorIcEC2B8ue170006Ev, symObjAddr: 0x2F00, symBinAddr: 0x100006560, symSize: 0x2C }
  - { offsetInCU: 0xE4C8, offset: 0xE4C8, size: 0x8, addend: 0x0, symName: __ZNSt3__116__non_trivial_ifILb1ENS_9allocatorIcEEEC2B8ue170006Ev, symObjAddr: 0x2F2C, symBinAddr: 0x10000658C, symSize: 0x14 }
  - { offsetInCU: 0xE4F2, offset: 0xE4F2, size: 0x8, addend: 0x0, symName: __ZNKSt3__112basic_stringIcNS_11char_traitsIcEENS_9allocatorIcEEE13__get_pointerB8ue170006Ev, symObjAddr: 0x2F54, symBinAddr: 0x1000065B4, symSize: 0x54 }
  - { offsetInCU: 0xE518, offset: 0xE518, size: 0x8, addend: 0x0, symName: __ZNKSt3__112basic_stringIcNS_11char_traitsIcEENS_9allocatorIcEEE9__is_longB8ue170006Ev, symObjAddr: 0x2FA8, symBinAddr: 0x100006608, symSize: 0x38 }
  - { offsetInCU: 0xE53E, offset: 0xE53E, size: 0x8, addend: 0x0, symName: __ZNKSt3__112basic_stringIcNS_11char_traitsIcEENS_9allocatorIcEEE18__get_long_pointerB8ue170006Ev, symObjAddr: 0x2FE0, symBinAddr: 0x100006640, symSize: 0x28 }
  - { offsetInCU: 0xE564, offset: 0xE564, size: 0x8, addend: 0x0, symName: __ZNKSt3__112basic_stringIcNS_11char_traitsIcEENS_9allocatorIcEEE19__get_short_pointerB8ue170006Ev, symObjAddr: 0x3008, symBinAddr: 0x100006668, symSize: 0x28 }
  - { offsetInCU: 0xE58A, offset: 0xE58A, size: 0x8, addend: 0x0, symName: __ZNKSt3__117__compressed_pairINS_12basic_stringIcNS_11char_traitsIcEENS_9allocatorIcEEE5__repES5_E5firstB8ue170006Ev, symObjAddr: 0x3030, symBinAddr: 0x100006690, symSize: 0x24 }
  - { offsetInCU: 0xE5B0, offset: 0xE5B0, size: 0x8, addend: 0x0, symName: __ZNKSt3__122__compressed_pair_elemINS_12basic_stringIcNS_11char_traitsIcEENS_9allocatorIcEEE5__repELi0ELb0EE5__getB8ue170006Ev, symObjAddr: 0x3054, symBinAddr: 0x1000066B4, symSize: 0x14 }
  - { offsetInCU: 0xE5D6, offset: 0xE5D6, size: 0x8, addend: 0x0, symName: __ZNSt3__114pointer_traitsIPKcE10pointer_toB8ue170006ERS1_, symObjAddr: 0x3068, symBinAddr: 0x1000066C8, symSize: 0x14 }
  - { offsetInCU: 0xE5F9, offset: 0xE5F9, size: 0x8, addend: 0x0, symName: __ZNSt3__119ostreambuf_iteratorIcNS_11char_traitsIcEEEC2B8ue170006ERNS_13basic_ostreamIcS2_EE, symObjAddr: 0x307C, symBinAddr: 0x1000066DC, symSize: 0x54 }
  - { offsetInCU: 0xE631, offset: 0xE631, size: 0x8, addend: 0x0, symName: __ZNKSt3__19basic_iosIcNS_11char_traitsIcEEE5rdbufB8ue170006Ev, symObjAddr: 0x30D0, symBinAddr: 0x100006730, symSize: 0x24 }
  - { offsetInCU: 0xE659, offset: 0xE659, size: 0x8, addend: 0x0, symName: __ZNKSt3__18ios_base5rdbufB8ue170006Ev, symObjAddr: 0x30F4, symBinAddr: 0x100006754, symSize: 0x18 }
  - { offsetInCU: 0xE67F, offset: 0xE67F, size: 0x8, addend: 0x0, symName: __ZNSt3__111char_traitsIcE11eq_int_typeB8ue170006Eii, symObjAddr: 0x310C, symBinAddr: 0x10000676C, symSize: 0x28 }
  - { offsetInCU: 0xE6B2, offset: 0xE6B2, size: 0x8, addend: 0x0, symName: __ZNSt3__111char_traitsIcE3eofB8ue170006Ev, symObjAddr: 0x3134, symBinAddr: 0x100006794, symSize: 0x8 }
  - { offsetInCU: 0xE6C6, offset: 0xE6C6, size: 0x8, addend: 0x0, symName: __ZNSt3__18ios_base8setstateB8ue170006Ej, symObjAddr: 0x313C, symBinAddr: 0x10000679C, symSize: 0x34 }
  - { offsetInCU: 0x3F, offset: 0xE83F, size: 0x8, addend: 0x0, symName: _zobrist, symObjAddr: 0x27958, symBinAddr: 0x10000C000, symSize: 0x0 }
  - { offsetInCU: 0x7748, offset: 0x15F48, size: 0x8, addend: 0x0, symName: __ZN7ZobristC2Ev, symObjAddr: 0x0, symBinAddr: 0x1000067F4, symSize: 0x238 }
  - { offsetInCU: 0x77F8, offset: 0x15FF8, size: 0x8, addend: 0x0, symName: __ZNSt3__123mersenne_twister_engineIyLm64ELm312ELm156ELm31ELy13043109905998158313ELm29ELy6148914691236517205ELm17ELy8202884508482404352ELm37ELy18444473444759240704ELm43ELy6364136223846793005EEC1B8ue170006Ev, symObjAddr: 0x238, symBinAddr: 0x100006A2C, symSize: 0x30 }
  - { offsetInCU: 0x7822, offset: 0x16022, size: 0x8, addend: 0x0, symName: __ZNSt3__113unordered_mapIyiNS_4hashIyEENS_8equal_toIyEENS_9allocatorINS_4pairIKyiEEEEEC1B8ue170006Ev, symObjAddr: 0x268, symBinAddr: 0x100006A5C, symSize: 0x2C }
  - { offsetInCU: 0x792E, offset: 0x1612E, size: 0x8, addend: 0x0, symName: __ZNSt3__113random_deviceC1B8ue170006Ev, symObjAddr: 0x294, symBinAddr: 0x100006A88, symSize: 0x74 }
  - { offsetInCU: 0x7958, offset: 0x16158, size: 0x8, addend: 0x0, symName: __ZNSt3__123mersenne_twister_engineIyLm64ELm312ELm156ELm31ELy13043109905998158313ELm29ELy6148914691236517205ELm17ELy8202884508482404352ELm37ELy18444473444759240704ELm43ELy6364136223846793005EE4seedEy, symObjAddr: 0x308, symBinAddr: 0x100006AFC, symSize: 0xD0 }
  - { offsetInCU: 0x79AC, offset: 0x161AC, size: 0x8, addend: 0x0, symName: __ZN7Zobrist8random64Ev, symObjAddr: 0x3D8, symBinAddr: 0x100006BCC, symSize: 0x2C }
  - { offsetInCU: 0x79D2, offset: 0x161D2, size: 0x8, addend: 0x0, symName: __ZNSt3__15arrayINS0_IyLm12EEELm64EEixB8ue170006Em, symObjAddr: 0x404, symBinAddr: 0x100006BF8, symSize: 0x28 }
  - { offsetInCU: 0x7A06, offset: 0x16206, size: 0x8, addend: 0x0, symName: __ZNSt3__15arrayIyLm12EEixB8ue170006Em, symObjAddr: 0x42C, symBinAddr: 0x100006C20, symSize: 0x20 }
  - { offsetInCU: 0x7A3A, offset: 0x1623A, size: 0x8, addend: 0x0, symName: __ZNSt3__15arrayIyLm16EEixB8ue170006Em, symObjAddr: 0x44C, symBinAddr: 0x100006C40, symSize: 0x20 }
  - { offsetInCU: 0x7A6E, offset: 0x1626E, size: 0x8, addend: 0x0, symName: __ZNSt3__15arrayIyLm8EEixB8ue170006Em, symObjAddr: 0x46C, symBinAddr: 0x100006C60, symSize: 0x20 }
  - { offsetInCU: 0x7AA2, offset: 0x162A2, size: 0x8, addend: 0x0, symName: __ZN7ZobristC1Ev, symObjAddr: 0x4B8, symBinAddr: 0x100006C80, symSize: 0x2C }
  - { offsetInCU: 0x7ACE, offset: 0x162CE, size: 0x8, addend: 0x0, symName: __ZNK7Zobrist11computeHashEPK8position, symObjAddr: 0x4E4, symBinAddr: 0x100006CAC, symSize: 0x188 }
  - { offsetInCU: 0x7B7C, offset: 0x1637C, size: 0x8, addend: 0x0, symName: __ZNKSt3__15arrayINS0_IyLm12EEELm64EEixB8ue170006Em, symObjAddr: 0x66C, symBinAddr: 0x100006E34, symSize: 0x28 }
  - { offsetInCU: 0x7BB0, offset: 0x163B0, size: 0x8, addend: 0x0, symName: __ZNKSt3__15arrayIyLm12EEixB8ue170006Em, symObjAddr: 0x694, symBinAddr: 0x100006E5C, symSize: 0x20 }
  - { offsetInCU: 0x7BE4, offset: 0x163E4, size: 0x8, addend: 0x0, symName: __ZNKSt3__15arrayIyLm16EEixB8ue170006Em, symObjAddr: 0x6B4, symBinAddr: 0x100006E7C, symSize: 0x20 }
  - { offsetInCU: 0x7C18, offset: 0x16418, size: 0x8, addend: 0x0, symName: __ZNKSt3__15arrayIyLm8EEixB8ue170006Em, symObjAddr: 0x6D4, symBinAddr: 0x100006E9C, symSize: 0x20 }
  - { offsetInCU: 0x7C51, offset: 0x16451, size: 0x8, addend: 0x0, symName: __ZNSt3__112basic_stringIcNS_11char_traitsIcEENS_9allocatorIcEEEC1B8ue170006ILi0EEEPKc, symObjAddr: 0x6F4, symBinAddr: 0x100006EBC, symSize: 0x34 }
  - { offsetInCU: 0x7C90, offset: 0x16490, size: 0x8, addend: 0x0, symName: __ZNSt3__112basic_stringIcNS_11char_traitsIcEENS_9allocatorIcEEEC2B8ue170006ILi0EEEPKc, symObjAddr: 0x728, symBinAddr: 0x100006EF0, symSize: 0x58 }
  - { offsetInCU: 0x7CD4, offset: 0x164D4, size: 0x8, addend: 0x0, symName: __ZNSt3__123mersenne_twister_engineIyLm64ELm312ELm156ELm31ELy13043109905998158313ELm29ELy6148914691236517205ELm17ELy8202884508482404352ELm37ELy18444473444759240704ELm43ELy6364136223846793005EEclEv, symObjAddr: 0x8DC, symBinAddr: 0x100006F48, symSize: 0x158 }
  - { offsetInCU: 0x7D47, offset: 0x16547, size: 0x8, addend: 0x0, symName: __ZNSt3__123mersenne_twister_engineIyLm64ELm312ELm156ELm31ELy13043109905998158313ELm29ELy6148914691236517205ELm17ELy8202884508482404352ELm37ELy18444473444759240704ELm43ELy6364136223846793005EE8__rshiftB8ue170006ILm1EEENS_9enable_ifIXltT_L_ZNS1_3_DtEEEyE4typeEy, symObjAddr: 0xA34, symBinAddr: 0x1000070A0, symSize: 0x18 }
  - { offsetInCU: 0x7D74, offset: 0x16574, size: 0x8, addend: 0x0, symName: __ZNSt3__123mersenne_twister_engineIyLm64ELm312ELm156ELm31ELy13043109905998158313ELm29ELy6148914691236517205ELm17ELy8202884508482404352ELm37ELy18444473444759240704ELm43ELy6364136223846793005EE8__rshiftB8ue170006ILm29EEENS_9enable_ifIXltT_L_ZNS1_3_DtEEEyE4typeEy, symObjAddr: 0xA4C, symBinAddr: 0x1000070B8, symSize: 0x18 }
  - { offsetInCU: 0x7DA1, offset: 0x165A1, size: 0x8, addend: 0x0, symName: __ZNSt3__123mersenne_twister_engineIyLm64ELm312ELm156ELm31ELy13043109905998158313ELm29ELy6148914691236517205ELm17ELy8202884508482404352ELm37ELy18444473444759240704ELm43ELy6364136223846793005EE8__lshiftB8ue170006ILm17EEENS_9enable_ifIXltT_Lm64EEyE4typeEy, symObjAddr: 0xA64, symBinAddr: 0x1000070D0, symSize: 0x1C }
  - { offsetInCU: 0x7DCE, offset: 0x165CE, size: 0x8, addend: 0x0, symName: __ZNSt3__123mersenne_twister_engineIyLm64ELm312ELm156ELm31ELy13043109905998158313ELm29ELy6148914691236517205ELm17ELy8202884508482404352ELm37ELy18444473444759240704ELm43ELy6364136223846793005EE8__lshiftB8ue170006ILm37EEENS_9enable_ifIXltT_Lm64EEyE4typeEy, symObjAddr: 0xA80, symBinAddr: 0x1000070EC, symSize: 0x1C }
  - { offsetInCU: 0x7DFB, offset: 0x165FB, size: 0x8, addend: 0x0, symName: __ZNSt3__123mersenne_twister_engineIyLm64ELm312ELm156ELm31ELy13043109905998158313ELm29ELy6148914691236517205ELm17ELy8202884508482404352ELm37ELy18444473444759240704ELm43ELy6364136223846793005EE8__rshiftB8ue170006ILm43EEENS_9enable_ifIXltT_L_ZNS1_3_DtEEEyE4typeEy, symObjAddr: 0xA9C, symBinAddr: 0x100007108, symSize: 0x18 }
  - { offsetInCU: 0x7E28, offset: 0x16628, size: 0x8, addend: 0x0, symName: __ZNSt3__123mersenne_twister_engineIyLm64ELm312ELm156ELm31ELy13043109905998158313ELm29ELy6148914691236517205ELm17ELy8202884508482404352ELm37ELy18444473444759240704ELm43ELy6364136223846793005EEC1B8ue170006Ey, symObjAddr: 0xAB4, symBinAddr: 0x100007120, symSize: 0x34 }
  - { offsetInCU: 0x7E60, offset: 0x16660, size: 0x8, addend: 0x0, symName: __ZNSt3__123mersenne_twister_engineIyLm64ELm312ELm156ELm31ELy13043109905998158313ELm29ELy6148914691236517205ELm17ELy8202884508482404352ELm37ELy18444473444759240704ELm43ELy6364136223846793005EEC2B8ue170006Ey, symObjAddr: 0xAE8, symBinAddr: 0x100007154, symSize: 0x34 }
  - { offsetInCU: 0x7E98, offset: 0x16698, size: 0x8, addend: 0x0, symName: __ZNSt3__113unordered_mapIyiNS_4hashIyEENS_8equal_toIyEENS_9allocatorINS_4pairIKyiEEEEEC2B8ue170006Ev, symObjAddr: 0xB1C, symBinAddr: 0x100007188, symSize: 0x2C }
  - { offsetInCU: 0x7EC2, offset: 0x166C2, size: 0x8, addend: 0x0, symName: __ZNSt3__112__hash_tableINS_17__hash_value_typeIyiEENS_22__unordered_map_hasherIyS2_NS_4hashIyEENS_8equal_toIyEELb1EEENS_21__unordered_map_equalIyS2_S7_S5_Lb1EEENS_9allocatorIS2_EEEC1Ev, symObjAddr: 0xB48, symBinAddr: 0x1000071B4, symSize: 0x2C }
  - { offsetInCU: 0x7EEE, offset: 0x166EE, size: 0x8, addend: 0x0, symName: __ZNSt3__112__hash_tableINS_17__hash_value_typeIyiEENS_22__unordered_map_hasherIyS2_NS_4hashIyEENS_8equal_toIyEELb1EEENS_21__unordered_map_equalIyS2_S7_S5_Lb1EEENS_9allocatorIS2_EEEC2Ev, symObjAddr: 0xB74, symBinAddr: 0x1000071E0, symSize: 0x7C }
  - { offsetInCU: 0x7F1A, offset: 0x1671A, size: 0x8, addend: 0x0, symName: __ZNSt3__110unique_ptrIA_PNS_16__hash_node_baseIPNS_11__hash_nodeINS_17__hash_value_typeIyiEEPvEEEENS_25__bucket_list_deallocatorINS_9allocatorIS9_EEEEEC1B8ue170006ILb1EvEEv, symObjAddr: 0xBF0, symBinAddr: 0x10000725C, symSize: 0x2C }
  - { offsetInCU: 0x7F4F, offset: 0x1674F, size: 0x8, addend: 0x0, symName: __ZNSt3__117__compressed_pairINS_16__hash_node_baseIPNS_11__hash_nodeINS_17__hash_value_typeIyiEEPvEEEENS_9allocatorIS6_EEEC1B8ue170006ILb1EvEEv, symObjAddr: 0xC1C, symBinAddr: 0x100007288, symSize: 0x2C }
  - { offsetInCU: 0x7F89, offset: 0x16789, size: 0x8, addend: 0x0, symName: __ZNSt3__117__compressed_pairImNS_22__unordered_map_hasherIyNS_17__hash_value_typeIyiEENS_4hashIyEENS_8equal_toIyEELb1EEEEC1B8ue170006IiNS_18__default_init_tagEEEOT_OT0_, symObjAddr: 0xC48, symBinAddr: 0x1000072B4, symSize: 0x3C }
  - { offsetInCU: 0x7FE6, offset: 0x167E6, size: 0x8, addend: 0x0, symName: __ZNSt3__117__compressed_pairIfNS_21__unordered_map_equalIyNS_17__hash_value_typeIyiEENS_8equal_toIyEENS_4hashIyEELb1EEEEC1B8ue170006IfNS_18__default_init_tagEEEOT_OT0_, symObjAddr: 0xC84, symBinAddr: 0x1000072F0, symSize: 0x3C }
  - { offsetInCU: 0x803E, offset: 0x1683E, size: 0x8, addend: 0x0, symName: __ZNSt3__110unique_ptrIA_PNS_16__hash_node_baseIPNS_11__hash_nodeINS_17__hash_value_typeIyiEEPvEEEENS_25__bucket_list_deallocatorINS_9allocatorIS9_EEEEEC2B8ue170006ILb1EvEEv, symObjAddr: 0xCC0, symBinAddr: 0x10000732C, symSize: 0x3C }
  - { offsetInCU: 0x8078, offset: 0x16878, size: 0x8, addend: 0x0, symName: __ZNSt3__117__compressed_pairIPPNS_16__hash_node_baseIPNS_11__hash_nodeINS_17__hash_value_typeIyiEEPvEEEENS_25__bucket_list_deallocatorINS_9allocatorIS9_EEEEEC1B8ue170006INS_16__value_init_tagESH_EEOT_OT0_, symObjAddr: 0xCFC, symBinAddr: 0x100007368, symSize: 0x3C }
  - { offsetInCU: 0x80D0, offset: 0x168D0, size: 0x8, addend: 0x0, symName: __ZNSt3__117__compressed_pairIPPNS_16__hash_node_baseIPNS_11__hash_nodeINS_17__hash_value_typeIyiEEPvEEEENS_25__bucket_list_deallocatorINS_9allocatorIS9_EEEEEC2B8ue170006INS_16__value_init_tagESH_EEOT_OT0_, symObjAddr: 0xD38, symBinAddr: 0x1000073A4, symSize: 0x40 }
  - { offsetInCU: 0x8128, offset: 0x16928, size: 0x8, addend: 0x0, symName: __ZNSt3__122__compressed_pair_elemIPPNS_16__hash_node_baseIPNS_11__hash_nodeINS_17__hash_value_typeIyiEEPvEEEELi0ELb0EEC2B8ue170006ENS_16__value_init_tagE, symObjAddr: 0xD78, symBinAddr: 0x1000073E4, symSize: 0x18 }
  - { offsetInCU: 0x815D, offset: 0x1695D, size: 0x8, addend: 0x0, symName: __ZNSt3__122__compressed_pair_elemINS_25__bucket_list_deallocatorINS_9allocatorIPNS_16__hash_node_baseIPNS_11__hash_nodeINS_17__hash_value_typeIyiEEPvEEEEEEEELi1ELb0EEC2B8ue170006ENS_16__value_init_tagE, symObjAddr: 0xD90, symBinAddr: 0x1000073FC, symSize: 0x2C }
  - { offsetInCU: 0x8192, offset: 0x16992, size: 0x8, addend: 0x0, symName: __ZNSt3__125__bucket_list_deallocatorINS_9allocatorIPNS_16__hash_node_baseIPNS_11__hash_nodeINS_17__hash_value_typeIyiEEPvEEEEEEEC1B8ue170006Ev, symObjAddr: 0xDBC, symBinAddr: 0x100007428, symSize: 0x2C }
  - { offsetInCU: 0x81BC, offset: 0x169BC, size: 0x8, addend: 0x0, symName: __ZNSt3__125__bucket_list_deallocatorINS_9allocatorIPNS_16__hash_node_baseIPNS_11__hash_nodeINS_17__hash_value_typeIyiEEPvEEEEEEEC2B8ue170006Ev, symObjAddr: 0xDE8, symBinAddr: 0x100007454, symSize: 0x40 }
  - { offsetInCU: 0x81E6, offset: 0x169E6, size: 0x8, addend: 0x0, symName: __ZNSt3__117__compressed_pairImNS_9allocatorIPNS_16__hash_node_baseIPNS_11__hash_nodeINS_17__hash_value_typeIyiEEPvEEEEEEEC1B8ue170006IiNS_18__default_init_tagEEEOT_OT0_, symObjAddr: 0xE28, symBinAddr: 0x100007494, symSize: 0x3C }
  - { offsetInCU: 0x823E, offset: 0x16A3E, size: 0x8, addend: 0x0, symName: __ZNSt3__117__compressed_pairImNS_9allocatorIPNS_16__hash_node_baseIPNS_11__hash_nodeINS_17__hash_value_typeIyiEEPvEEEEEEEC2B8ue170006IiNS_18__default_init_tagEEEOT_OT0_, symObjAddr: 0xE64, symBinAddr: 0x1000074D0, symSize: 0x40 }
  - { offsetInCU: 0x8296, offset: 0x16A96, size: 0x8, addend: 0x0, symName: __ZNSt3__122__compressed_pair_elemImLi0ELb0EEC2B8ue170006IivEEOT_, symObjAddr: 0xEA4, symBinAddr: 0x100007510, symSize: 0x24 }
  - { offsetInCU: 0x82D8, offset: 0x16AD8, size: 0x8, addend: 0x0, symName: __ZNSt3__122__compressed_pair_elemINS_9allocatorIPNS_16__hash_node_baseIPNS_11__hash_nodeINS_17__hash_value_typeIyiEEPvEEEEEELi1ELb1EEC2B8ue170006ENS_18__default_init_tagE, symObjAddr: 0xEC8, symBinAddr: 0x100007534, symSize: 0x2C }
  - { offsetInCU: 0x830D, offset: 0x16B0D, size: 0x8, addend: 0x0, symName: __ZNSt3__19allocatorIPNS_16__hash_node_baseIPNS_11__hash_nodeINS_17__hash_value_typeIyiEEPvEEEEEC2B8ue170006Ev, symObjAddr: 0xEF4, symBinAddr: 0x100007560, symSize: 0x2C }
  - { offsetInCU: 0x8337, offset: 0x16B37, size: 0x8, addend: 0x0, symName: __ZNSt3__116__non_trivial_ifILb1ENS_9allocatorIPNS_16__hash_node_baseIPNS_11__hash_nodeINS_17__hash_value_typeIyiEEPvEEEEEEEC2B8ue170006Ev, symObjAddr: 0xF20, symBinAddr: 0x10000758C, symSize: 0x14 }
  - { offsetInCU: 0x8361, offset: 0x16B61, size: 0x8, addend: 0x0, symName: __ZNSt3__117__compressed_pairINS_16__hash_node_baseIPNS_11__hash_nodeINS_17__hash_value_typeIyiEEPvEEEENS_9allocatorIS6_EEEC2B8ue170006ILb1EvEEv, symObjAddr: 0xF34, symBinAddr: 0x1000075A0, symSize: 0x34 }
  - { offsetInCU: 0x8396, offset: 0x16B96, size: 0x8, addend: 0x0, symName: __ZNSt3__122__compressed_pair_elemINS_16__hash_node_baseIPNS_11__hash_nodeINS_17__hash_value_typeIyiEEPvEEEELi0ELb0EEC2B8ue170006ENS_16__value_init_tagE, symObjAddr: 0xF68, symBinAddr: 0x1000075D4, symSize: 0x2C }
  - { offsetInCU: 0x83CB, offset: 0x16BCB, size: 0x8, addend: 0x0, symName: __ZNSt3__122__compressed_pair_elemINS_9allocatorINS_11__hash_nodeINS_17__hash_value_typeIyiEEPvEEEELi1ELb1EEC2B8ue170006ENS_16__value_init_tagE, symObjAddr: 0xF94, symBinAddr: 0x100007600, symSize: 0x2C }
  - { offsetInCU: 0x8400, offset: 0x16C00, size: 0x8, addend: 0x0, symName: __ZNSt3__116__hash_node_baseIPNS_11__hash_nodeINS_17__hash_value_typeIyiEEPvEEEC1B8ue170006Ev, symObjAddr: 0xFC0, symBinAddr: 0x10000762C, symSize: 0x2C }
  - { offsetInCU: 0x842A, offset: 0x16C2A, size: 0x8, addend: 0x0, symName: __ZNSt3__116__hash_node_baseIPNS_11__hash_nodeINS_17__hash_value_typeIyiEEPvEEEC2B8ue170006Ev, symObjAddr: 0xFEC, symBinAddr: 0x100007658, symSize: 0x18 }
  - { offsetInCU: 0x8454, offset: 0x16C54, size: 0x8, addend: 0x0, symName: __ZNSt3__19allocatorINS_11__hash_nodeINS_17__hash_value_typeIyiEEPvEEEC2B8ue170006Ev, symObjAddr: 0x1004, symBinAddr: 0x100007670, symSize: 0x2C }
  - { offsetInCU: 0x847E, offset: 0x16C7E, size: 0x8, addend: 0x0, symName: __ZNSt3__116__non_trivial_ifILb1ENS_9allocatorINS_11__hash_nodeINS_17__hash_value_typeIyiEEPvEEEEEC2B8ue170006Ev, symObjAddr: 0x1030, symBinAddr: 0x10000769C, symSize: 0x14 }
  - { offsetInCU: 0x84A8, offset: 0x16CA8, size: 0x8, addend: 0x0, symName: __ZNSt3__117__compressed_pairImNS_22__unordered_map_hasherIyNS_17__hash_value_typeIyiEENS_4hashIyEENS_8equal_toIyEELb1EEEEC2B8ue170006IiNS_18__default_init_tagEEEOT_OT0_, symObjAddr: 0x1044, symBinAddr: 0x1000076B0, symSize: 0x40 }
  - { offsetInCU: 0x8500, offset: 0x16D00, size: 0x8, addend: 0x0, symName: __ZNSt3__122__compressed_pair_elemINS_22__unordered_map_hasherIyNS_17__hash_value_typeIyiEENS_4hashIyEENS_8equal_toIyEELb1EEELi1ELb1EEC2B8ue170006ENS_18__default_init_tagE, symObjAddr: 0x1084, symBinAddr: 0x1000076F0, symSize: 0x2C }
  - { offsetInCU: 0x8535, offset: 0x16D35, size: 0x8, addend: 0x0, symName: __ZNSt3__122__unordered_map_hasherIyNS_17__hash_value_typeIyiEENS_4hashIyEENS_8equal_toIyEELb1EEC2B8ue170006Ev, symObjAddr: 0x10B0, symBinAddr: 0x10000771C, symSize: 0x14 }
  - { offsetInCU: 0x855F, offset: 0x16D5F, size: 0x8, addend: 0x0, symName: __ZNSt3__117__compressed_pairIfNS_21__unordered_map_equalIyNS_17__hash_value_typeIyiEENS_8equal_toIyEENS_4hashIyEELb1EEEEC2B8ue170006IfNS_18__default_init_tagEEEOT_OT0_, symObjAddr: 0x10C4, symBinAddr: 0x100007730, symSize: 0x40 }
  - { offsetInCU: 0x85B7, offset: 0x16DB7, size: 0x8, addend: 0x0, symName: __ZNSt3__122__compressed_pair_elemIfLi0ELb0EEC2B8ue170006IfvEEOT_, symObjAddr: 0x1104, symBinAddr: 0x100007770, symSize: 0x24 }
  - { offsetInCU: 0x85F9, offset: 0x16DF9, size: 0x8, addend: 0x0, symName: __ZNSt3__122__compressed_pair_elemINS_21__unordered_map_equalIyNS_17__hash_value_typeIyiEENS_8equal_toIyEENS_4hashIyEELb1EEELi1ELb1EEC2B8ue170006ENS_18__default_init_tagE, symObjAddr: 0x1128, symBinAddr: 0x100007794, symSize: 0x2C }
  - { offsetInCU: 0x862E, offset: 0x16E2E, size: 0x8, addend: 0x0, symName: __ZNSt3__121__unordered_map_equalIyNS_17__hash_value_typeIyiEENS_8equal_toIyEENS_4hashIyEELb1EEC2B8ue170006Ev, symObjAddr: 0x1154, symBinAddr: 0x1000077C0, symSize: 0x14 }
  - { offsetInCU: 0x8658, offset: 0x16E58, size: 0x8, addend: 0x0, symName: __ZNSt3__123mersenne_twister_engineIyLm64ELm312ELm156ELm31ELy13043109905998158313ELm29ELy6148914691236517205ELm17ELy8202884508482404352ELm37ELy18444473444759240704ELm43ELy6364136223846793005EE8__rshiftB8ue170006ILm62EEENS_9enable_ifIXltT_L_ZNS1_3_DtEEEyE4typeEy, symObjAddr: 0x177C, symBinAddr: 0x1000077D4, symSize: 0x18 }
...
